(lp0
(dp1
S'RR'
p2
I16
sS'CSK'
p3
I18
sS'KXP'
p4
I10
sS'SRH'
p5
I14
sS'PWI'
p6
I4
sS'MI'
p7
I16
sS'DD'
p8
I6
sS'RCB'
p9
I14
sS'KKR'
p10
I8
sa(lp11
(I54
(g5
g3
tp12
tp13
a(I55
(g4
g2
tp14
tp15
a(I56
(g6
g10
tp16
tp17
a(I57
(g8
g9
tp18
tp19
a(I58
(g6
g7
tp20
tp21
a(I59
(g4
g5
tp22
tp23
a(I60
(g10
g9
tp24
tp25
a(I61
(g2
g3
tp26
tp27
a(I62
(g7
g5
tp28
tp29
a(I63
(g9
g4
tp30
tp31
a(I64
(g3
g8
tp32
tp33
a(I65
(g10
g6
tp34
tp35
a(I66
(g7
g2
tp36
tp37
a(I67
(g4
g8
tp38
tp39
a(I68
(g5
g2
tp40
tp41
a(I69
(g4
g7
tp42
tp43
a(I70
(g9
g3
tp44
tp45
a(I71
(g6
g8
tp46
tp47
a(I72
(g5
g10
tp48
tp49
aa.